(dp0
S'./petite.boot'
p1
(I1267315
F1483654694.6199286
tp2
sS'./libimgui.so'
p3
(I1618464
F1483650807.119836
tp4
sS'./scheme.boot'
p5
(I725828
F1483654694.6239285
tp6
sS'./scheme'
p7
(I18952
F1483650807.123836
tp8
sS'./libscm.so'
p9
(I428020
F1483654717.031929
tp10
sS'./libglut.so'
p11
(I42112
F1483654706.3999288
tp12
sS'./env.sh'
p13
(I158
F1483562438.7939863
tp14
sS'./imgui.ini'
p15
(I93
F1483651621.4438555
tp16
s.