(dp0
S'./gles2.ss'
p1
(I48170
F1483562438.8499863
tp2
sS'./gui.ss'
p3
(I455
F1483562438.8499863
tp4
sS'./gles1.ss'
p5
(I65841
F1483562438.8499863
tp6
sS'./test.ss'
p7
(I14514
F1483562438.8499863
tp8
sS'./glut.ss'
p9
(I6030
F1483562438.8499863
tp10
sS'./android.ss'
p11
(I1043
F1483562438.8499863
tp12
sS'./imgui.ss'
p13
(I5945
F1483562438.8499863
tp14
s.